target datalayout = "e-m:e-p270:32:32-p271:32:32-p272:64:64-i64:64-i128:128-f80:128-n8:16:32:64-S128"
target triple = "x86_64-pc-linux-gnu"

%struct.lbr_state = type { i64, %union.RepeatControl }
%union.RepeatControl = type { %struct.RepeatRingControl }
%struct.RepeatRingControl = type { i64, i16, i16 }
%struct.lbr_common = type { i32, i32 }

; Function Attrs: alwaysinline nounwind uwtable
define internal ptr @getRepeatInfo(ptr noundef %0) #2 {
  %2 = alloca ptr, align 8
  %3 = alloca ptr, align 8
  store ptr %0, ptr %2, align 8
  call void @llvm.lifetime.start.p0(i64 8, ptr %3) #8
  %4 = load ptr, ptr %2, align 8
  %5 = load ptr, ptr %2, align 8
  %6 = getelementptr inbounds nuw %struct.lbr_common, ptr %5, i32 0, i32 0
  %7 = load i32, ptr %6, align 4
  %8 = zext i32 %7 to i64
  %9 = getelementptr inbounds nuw i8, ptr %4, i64 %8
  store ptr %9, ptr %3, align 8
  %10 = load ptr, ptr %3, align 8
  call void @llvm.lifetime.end.p0(i64 8, ptr %3) #8
  ret ptr %10
}

; Function Attrs: alwaysinline nounwind uwtable
define internal void @lbrExpandState(ptr noundef %0, i64 noundef %1, ptr noundef %2, ptr noundef %3) #2 {
  %5 = alloca ptr, align 8
  %6 = alloca i64, align 8
  %7 = alloca ptr, align 8
  %8 = alloca ptr, align 8
  %9 = alloca ptr, align 8
  store ptr %0, ptr %5, align 8
  store i64 %1, ptr %6, align 8
  store ptr %2, ptr %7, align 8
  store ptr %3, ptr %8, align 8
  call void @llvm.lifetime.start.p0(i64 8, ptr %9) #8
  %10 = load ptr, ptr %5, align 8
  %11 = call ptr @getRepeatInfo(ptr noundef %10)
  store ptr %11, ptr %9, align 8
  %12 = load ptr, ptr %7, align 8
  %13 = load ptr, ptr %9, align 8
  %14 = load i64, ptr %6, align 8
  %15 = load ptr, ptr %8, align 8
  %16 = getelementptr inbounds nuw %struct.lbr_state, ptr %15, i32 0, i32 1
  call void @repeatUnpack(ptr noundef %12, ptr noundef %13, i64 noundef %14, ptr noundef %16)
  %17 = load ptr, ptr %8, align 8
  %18 = getelementptr inbounds nuw %struct.lbr_state, ptr %17, i32 0, i32 0
  store i64 0, ptr %18, align 8
  call void @llvm.lifetime.end.p0(i64 8, ptr %9) #8
  ret void
}

; Function Attrs: nounwind uwtable
define hidden signext i8 @nfaExecLbrTruf_expandState(ptr noundef %0, ptr noundef %1, ptr noundef %2, i64 noundef %3, i8 noundef zeroext %4) #0 {
  %6 = alloca ptr, align 8
  %7 = alloca ptr, align 8
  %8 = alloca ptr, align 8
  %9 = alloca i64, align 8
  %10 = alloca i8, align 1
  %11 = alloca ptr, align 8
  %12 = alloca ptr, align 8
  store ptr %0, ptr %6, align 8
  store ptr %1, ptr %7, align 8
  store ptr %2, ptr %8, align 8
  store i64 %3, ptr %9, align 8
  store i8 %4, ptr %10, align 1
  br label %13

13:                                               ; preds = %5
  br label %14

14:                                               ; preds = %13
  call void @llvm.lifetime.start.p0(i64 8, ptr %11) #8
  %15 = load ptr, ptr %6, align 8
  %16 = getelementptr inbounds nuw i8, ptr %15, i64 64
  store ptr %16, ptr %11, align 8
  call void @llvm.lifetime.start.p0(i64 8, ptr %12) #8
  %17 = load ptr, ptr %7, align 8
  store ptr %17, ptr %12, align 8
  %18 = load ptr, ptr %11, align 8
  %19 = load i64, ptr %9, align 8
  %20 = load ptr, ptr %8, align 8
  %21 = load ptr, ptr %12, align 8
  call void @lbrExpandState(ptr noundef %18, i64 noundef %19, ptr noundef %20, ptr noundef %21)
  call void @llvm.lifetime.end.p0(i64 8, ptr %12) #8
  call void @llvm.lifetime.end.p0(i64 8, ptr %11) #8
  ret i8 0
}