; Function Attrs: nounwind uwtable
define hidden noundef signext i8 @nfaExecLbrTruf_expandState(ptr noundef %0, ptr noundef %1, ptr noundef %2, i64 noundef %3, i8 noundef zeroext %4) local_unnamed_addr #0 {
  %6 = getelementptr inbounds nuw i8, ptr %0, i64 64
  %7 = load i32, ptr %6, align 4
  %8 = zext i32 %7 to i64
  %9 = getelementptr inbounds nuw i8, ptr %6, i64 %8
  %10 = getelementptr inbounds nuw i8, ptr %1, i64 8
  tail call void @repeatUnpack(ptr noundef %2, ptr noundef nonnull %9, i64 noundef %3, ptr noundef nonnull %10) #8
  store i64 0, ptr %1, align 8
  ret i8 0
}